; Function Attrs: nounwind uwtable
define internal fastcc range(i32 -1, 1) i32 @H5ES__close(ptr noundef %0) unnamed_addr #0 {
  %2 = load i8, ptr @H5ES_init_g, align 1, !tbaa !3, !range !7, !noundef !8
  %3 = trunc nuw i8 %2 to i1
  %4 = load i8, ptr @H5_libterm_g, align 1, !range !7
  %5 = trunc nuw i8 %4 to i1
  %6 = xor i1 %5, true
  %7 = select i1 %3, i1 true, i1 %6
  br i1 %7, label %8, label %25, !prof !9

8:                                                ; preds = %1
  %9 = getelementptr inbounds nuw i8, ptr %0, i64 40
  %10 = tail call i64 @H5ES__list_count(ptr noundef nonnull %9) #5
  %.not = icmp eq i64 %10, 0
  br i1 %.not, label %15, label %11

11:                                               ; preds = %8
  %12 = load i64, ptr @H5E_EVENTSET_g, align 8, !tbaa !10
  %13 = load i64, ptr @H5E_CANTCLOSEOBJ_g, align 8, !tbaa !10
  %14 = tail call i32 (ptr, ptr, i32, i64, i64, ptr, ...) @H5E_printf_stack(ptr noundef nonnull @.str, ptr noundef nonnull @__func__.H5ES__close, i32 noundef 1029, i64 noundef %12, i64 noundef %13, ptr noundef nonnull @.str.36) #5
  br label %25

15:                                               ; preds = %8
  %16 = getelementptr inbounds nuw i8, ptr %0, i64 72
  %17 = tail call i32 @H5ES__list_iterate(ptr noundef nonnull %16, i32 noundef 2, ptr noundef nonnull @H5ES__close_failed_cb, ptr noundef nonnull %0) #5
  %18 = icmp slt i32 %17, 0
  br i1 %18, label %19, label %23

19:                                               ; preds = %15
  %20 = load i64, ptr @H5E_EVENTSET_g, align 8, !tbaa !10
  %21 = load i64, ptr @H5E_BADITER_g, align 8, !tbaa !10
  %22 = tail call i32 (ptr, ptr, i32, i64, i64, ptr, ...) @H5E_printf_stack(ptr noundef nonnull @.str, ptr noundef nonnull @__func__.H5ES__close, i32 noundef 1033, i64 noundef %20, i64 noundef %21, ptr noundef nonnull @.str.10) #5
  br label %25

23:                                               ; preds = %15
  %24 = tail call ptr @H5FL_reg_free(ptr noundef nonnull @H5_H5ES_t_reg_free_list, ptr noundef nonnull %0) #5
  br label %25

25:                                               ; preds = %11, %19, %23, %1
  %.0 = phi i32 [ -1, %11 ], [ -1, %19 ], [ 0, %23 ], [ 0, %1 ]
  ret i32 %.0
}